; Function Attrs: mustprogress nounwind uwtable
define void @_ZN6icu_7512PluralFormat21PluralSelectorAdapter5resetEv(ptr nocapture noundef nonnull align 8 dereferenceable(16) %this) local_unnamed_addr #0 align 2 {
entry:
  %pluralRules = getelementptr inbounds i8, ptr %this, i64 8
  %0 = load ptr, ptr %pluralRules, align 8
  %isnull = icmp eq ptr %0, null
  br i1 %isnull, label %delete.end, label %delete.notnull

delete.notnull:                                   ; preds = %entry
  %vtable = load ptr, ptr %0, align 8
  %vfn = getelementptr inbounds i8, ptr %vtable, i64 8
  %1 = load ptr, ptr %vfn, align 8
  tail call void %1(ptr noundef nonnull align 8 dereferenceable(28) %0) #15
  br label %delete.end

delete.end:                                       ; preds = %delete.notnull, %entry
  store ptr null, ptr %pluralRules, align 8
  ret void
}